; ModuleID = '6/18.c'
source_filename = "6/18.c"
target datalayout = "e-m:e-p270:32:32-p271:32:32-p272:64:64-i64:64-f80:128-n8:16:32:64-S128"
target triple = "x86_64-pc-linux-gnu"

@.str = private unnamed_addr constant [3 x i8] c"%d\00", align 1
@.str.1 = private unnamed_addr constant [6 x i8] c"%d %d\00", align 1
@.str.2 = private unnamed_addr constant [4 x i8] c"%d\0A\00", align 1

; Function Attrs: noinline nounwind uwtable
define dso_local void @main() #0 {
  %1 = alloca [100 x [100 x i32]], align 16
  %2 = alloca [1000 x i32], align 16
  %3 = alloca i32, align 4
  %4 = alloca i32, align 4
  %5 = alloca i32, align 4
  %6 = alloca i32, align 4
  %7 = alloca i32, align 4
  %8 = alloca i32, align 4
  %9 = alloca i32, align 4
  %10 = call i32 (i8*, ...) @__isoc99_scanf(i8* getelementptr inbounds ([3 x i8], [3 x i8]* @.str, i64 0, i64 0), i32* %3)
  store i32 0, i32* %9, align 4
  br label %11

11:                                               ; preds = %142, %0
  %12 = load i32, i32* %9, align 4
  %13 = load i32, i32* %3, align 4
  %14 = icmp slt i32 %12, %13
  br i1 %14, label %15, label %145

15:                                               ; preds = %11
  store i32 0, i32* %4, align 4
  %16 = call i32 (i8*, ...) @__isoc99_scanf(i8* getelementptr inbounds ([6 x i8], [6 x i8]* @.str.1, i64 0, i64 0), i32* %5, i32* %6)
  store i32 0, i32* %7, align 4
  br label %17

17:                                               ; preds = %40, %15
  %18 = load i32, i32* %7, align 4
  %19 = load i32, i32* %5, align 4
  %20 = icmp slt i32 %18, %19
  br i1 %20, label %21, label %43

21:                                               ; preds = %17
  store i32 0, i32* %8, align 4
  br label %22

22:                                               ; preds = %36, %21
  %23 = load i32, i32* %8, align 4
  %24 = load i32, i32* %6, align 4
  %25 = icmp slt i32 %23, %24
  br i1 %25, label %26, label %39

26:                                               ; preds = %22
  %27 = getelementptr inbounds [100 x [100 x i32]], [100 x [100 x i32]]* %1, i64 0, i64 0
  %28 = load i32, i32* %7, align 4
  %29 = sext i32 %28 to i64
  %30 = getelementptr inbounds [100 x i32], [100 x i32]* %27, i64 %29
  %31 = getelementptr inbounds [100 x i32], [100 x i32]* %30, i64 0, i64 0
  %32 = load i32, i32* %8, align 4
  %33 = sext i32 %32 to i64
  %34 = getelementptr inbounds i32, i32* %31, i64 %33
  %35 = call i32 (i8*, ...) @__isoc99_scanf(i8* getelementptr inbounds ([3 x i8], [3 x i8]* @.str, i64 0, i64 0), i32* %34)
  br label %36

36:                                               ; preds = %26
  %37 = load i32, i32* %8, align 4
  %38 = add nsw i32 %37, 1
  store i32 %38, i32* %8, align 4
  br label %22

39:                                               ; preds = %22
  br label %40

40:                                               ; preds = %39
  %41 = load i32, i32* %7, align 4
  %42 = add nsw i32 %41, 1
  store i32 %42, i32* %7, align 4
  br label %17

43:                                               ; preds = %17
  store i32 0, i32* %7, align 4
  br label %44

44:                                               ; preds = %69, %43
  %45 = load i32, i32* %7, align 4
  %46 = load i32, i32* %5, align 4
  %47 = icmp slt i32 %45, %46
  br i1 %47, label %48, label %72

48:                                               ; preds = %44
  %49 = load i32, i32* %4, align 4
  %50 = getelementptr inbounds [100 x [100 x i32]], [100 x [100 x i32]]* %1, i64 0, i64 0
  %51 = load i32, i32* %7, align 4
  %52 = sext i32 %51 to i64
  %53 = getelementptr inbounds [100 x i32], [100 x i32]* %50, i64 %52
  %54 = getelementptr inbounds [100 x i32], [100 x i32]* %53, i64 0, i64 0
  %55 = getelementptr inbounds i32, i32* %54, i64 0
  %56 = load i32, i32* %55, align 4
  %57 = add nsw i32 %49, %56
  %58 = getelementptr inbounds [100 x [100 x i32]], [100 x [100 x i32]]* %1, i64 0, i64 0
  %59 = load i32, i32* %7, align 4
  %60 = sext i32 %59 to i64
  %61 = getelementptr inbounds [100 x i32], [100 x i32]* %58, i64 %60
  %62 = getelementptr inbounds [100 x i32], [100 x i32]* %61, i64 0, i64 0
  %63 = load i32, i32* %6, align 4
  %64 = sext i32 %63 to i64
  %65 = getelementptr inbounds i32, i32* %62, i64 %64
  %66 = getelementptr inbounds i32, i32* %65, i64 -1
  %67 = load i32, i32* %66, align 4
  %68 = add nsw i32 %57, %67
  store i32 %68, i32* %4, align 4
  br label %69

69:                                               ; preds = %48
  %70 = load i32, i32* %7, align 4
  %71 = add nsw i32 %70, 1
  store i32 %71, i32* %7, align 4
  br label %44

72:                                               ; preds = %44
  store i32 0, i32* %8, align 4
  br label %73

73:                                               ; preds = %97, %72
  %74 = load i32, i32* %8, align 4
  %75 = load i32, i32* %6, align 4
  %76 = icmp slt i32 %74, %75
  br i1 %76, label %77, label %100

77:                                               ; preds = %73
  %78 = load i32, i32* %4, align 4
  %79 = getelementptr inbounds [100 x [100 x i32]], [100 x [100 x i32]]* %1, i64 0, i64 0
  %80 = getelementptr inbounds [100 x i32], [100 x i32]* %79, i64 0, i64 0
  %81 = load i32, i32* %8, align 4
  %82 = sext i32 %81 to i64
  %83 = getelementptr inbounds i32, i32* %80, i64 %82
  %84 = load i32, i32* %83, align 4
  %85 = add nsw i32 %78, %84
  %86 = getelementptr inbounds [100 x [100 x i32]], [100 x [100 x i32]]* %1, i64 0, i64 0
  %87 = load i32, i32* %5, align 4
  %88 = sext i32 %87 to i64
  %89 = getelementptr inbounds [100 x i32], [100 x i32]* %86, i64 %88
  %90 = getelementptr inbounds [100 x i32], [100 x i32]* %89, i64 -1
  %91 = getelementptr inbounds [100 x i32], [100 x i32]* %90, i64 0, i64 0
  %92 = load i32, i32* %8, align 4
  %93 = sext i32 %92 to i64
  %94 = getelementptr inbounds i32, i32* %91, i64 %93
  %95 = load i32, i32* %94, align 4
  %96 = add nsw i32 %85, %95
  store i32 %96, i32* %4, align 4
  br label %97

97:                                               ; preds = %77
  %98 = load i32, i32* %8, align 4
  %99 = add nsw i32 %98, 1
  store i32 %99, i32* %8, align 4
  br label %73

100:                                              ; preds = %73
  %101 = load i32, i32* %4, align 4
  %102 = getelementptr inbounds [100 x [100 x i32]], [100 x [100 x i32]]* %1, i64 0, i64 0
  %103 = getelementptr inbounds [100 x i32], [100 x i32]* %102, i64 0
  %104 = getelementptr inbounds [100 x i32], [100 x i32]* %103, i64 0, i64 0
  %105 = load i32, i32* %6, align 4
  %106 = sext i32 %105 to i64
  %107 = getelementptr inbounds i32, i32* %104, i64 %106
  %108 = getelementptr inbounds i32, i32* %107, i64 -1
  %109 = load i32, i32* %108, align 4
  %110 = sub nsw i32 %101, %109
  %111 = getelementptr inbounds [100 x [100 x i32]], [100 x [100 x i32]]* %1, i64 0, i64 0
  %112 = load i32, i32* %5, align 4
  %113 = sext i32 %112 to i64
  %114 = getelementptr inbounds [100 x i32], [100 x i32]* %111, i64 %113
  %115 = getelementptr inbounds [100 x i32], [100 x i32]* %114, i64 -1
  %116 = getelementptr inbounds [100 x i32], [100 x i32]* %115, i64 0, i64 0
  %117 = load i32, i32* %6, align 4
  %118 = sext i32 %117 to i64
  %119 = getelementptr inbounds i32, i32* %116, i64 %118
  %120 = getelementptr inbounds i32, i32* %119, i64 -1
  %121 = load i32, i32* %120, align 4
  %122 = sub nsw i32 %110, %121
  %123 = getelementptr inbounds [100 x [100 x i32]], [100 x [100 x i32]]* %1, i64 0, i64 0
  %124 = getelementptr inbounds [100 x i32], [100 x i32]* %123, i64 0
  %125 = getelementptr inbounds [100 x i32], [100 x i32]* %124, i64 0, i64 0
  %126 = getelementptr inbounds i32, i32* %125, i64 0
  %127 = load i32, i32* %126, align 4
  %128 = sub nsw i32 %122, %127
  %129 = getelementptr inbounds [100 x [100 x i32]], [100 x [100 x i32]]* %1, i64 0, i64 0
  %130 = load i32, i32* %5, align 4
  %131 = sext i32 %130 to i64
  %132 = getelementptr inbounds [100 x i32], [100 x i32]* %129, i64 %131
  %133 = getelementptr inbounds [100 x i32], [100 x i32]* %132, i64 -1
  %134 = getelementptr inbounds [100 x i32], [100 x i32]* %133, i64 0, i64 0
  %135 = getelementptr inbounds i32, i32* %134, i64 0
  %136 = load i32, i32* %135, align 4
  %137 = sub nsw i32 %128, %136
  store i32 %137, i32* %4, align 4
  %138 = load i32, i32* %4, align 4
  %139 = load i32, i32* %9, align 4
  %140 = sext i32 %139 to i64
  %141 = getelementptr inbounds [1000 x i32], [1000 x i32]* %2, i64 0, i64 %140
  store i32 %138, i32* %141, align 4
  br label %142

142:                                              ; preds = %100
  %143 = load i32, i32* %9, align 4
  %144 = add nsw i32 %143, 1
  store i32 %144, i32* %9, align 4
  br label %11

145:                                              ; preds = %11
  store i32 0, i32* %9, align 4
  br label %146

146:                                              ; preds = %157, %145
  %147 = load i32, i32* %9, align 4
  %148 = load i32, i32* %3, align 4
  %149 = sub nsw i32 %148, 1
  %150 = icmp slt i32 %147, %149
  br i1 %150, label %151, label %160

151:                                              ; preds = %146
  %152 = load i32, i32* %9, align 4
  %153 = sext i32 %152 to i64
  %154 = getelementptr inbounds [1000 x i32], [1000 x i32]* %2, i64 0, i64 %153
  %155 = load i32, i32* %154, align 4
  %156 = call i32 (i8*, ...) @printf(i8* getelementptr inbounds ([4 x i8], [4 x i8]* @.str.2, i64 0, i64 0), i32 %155)
  br label %157

157:                                              ; preds = %151
  %158 = load i32, i32* %9, align 4
  %159 = add nsw i32 %158, 1
  store i32 %159, i32* %9, align 4
  br label %146

160:                                              ; preds = %146
  %161 = load i32, i32* %9, align 4
  %162 = sext i32 %161 to i64
  %163 = getelementptr inbounds [1000 x i32], [1000 x i32]* %2, i64 0, i64 %162
  %164 = load i32, i32* %163, align 4
  %165 = call i32 (i8*, ...) @printf(i8* getelementptr inbounds ([3 x i8], [3 x i8]* @.str, i64 0, i64 0), i32 %164)
  ret void
}

declare dso_local i32 @__isoc99_scanf(i8*, ...) #1

declare dso_local i32 @printf(i8*, ...) #1


!llvm.module.flags = !{!0}
!llvm.ident = !{!1}

!0 = !{i32 1, !"wchar_size", i32 4}
!1 = !{!"clang version 10.0.0-4ubuntu1 "}
